target datalayout = "e-m:e-p270:32:32-p271:32:32-p272:64:64-i64:64-i128:128-f80:128-n8:16:32:64-S128"
target triple = "x86_64-pc-linux-gnu"

%"class.pxrInternal_v0_24__pxrReserved__::TfCallContext" = type <{ ptr, ptr, i64, ptr, i8, [7 x i8] }>
%"class.pxrInternal_v0_24__pxrReserved__::PcpNodeRef" = type { ptr, i64 }
%"class.pxrInternal_v0_24__pxrReserved__::UsdPrimCompositionQueryArc" = type { %"class.pxrInternal_v0_24__pxrReserved__::PcpNodeRef", %"class.pxrInternal_v0_24__pxrReserved__::PcpNodeRef", %"class.pxrInternal_v0_24__pxrReserved__::PcpNodeRef", %"class.std::shared_ptr" }
%"class.std::shared_ptr" = type { %"class.std::__shared_ptr" }
%"class.std::__shared_ptr" = type { ptr, %"class.std::__shared_count" }
%"class.std::__shared_count" = type { ptr }

@.str = private unnamed_addr constant [130 x i8] c"generated/home/dtcxzyw/WorkSpace/Projects/compilers/llvm-opt-benchmark/bench/openusd/OpenUSD/pxr/usd/usd/primCompositionQuery.cpp\00", align 1
@__func__._ZN32pxrInternal_v0_24__pxrReserved__26UsdPrimCompositionQueryArcC2ERKNS_10PcpNodeRefE = private unnamed_addr constant [27 x i8] c"UsdPrimCompositionQueryArc\00", align 1
@__PRETTY_FUNCTION__._ZN32pxrInternal_v0_24__pxrReserved__26UsdPrimCompositionQueryArcC2ERKNS_10PcpNodeRefE = private unnamed_addr constant [109 x i8] c"pxrInternal_v0_24__pxrReserved__::UsdPrimCompositionQueryArc::UsdPrimCompositionQueryArc(const PcpNodeRef &)\00", align 1
@.str.1 = private unnamed_addr constant [6 x i8] c"_node\00", align 1

; Function Attrs: mustprogress nounwind uwtable
define linkonce_odr void @_ZNSt14__shared_countILN9__gnu_cxx12_Lock_policyE2EEC2Ev(ptr noundef nonnull align 8 dereferenceable(8) %0) unnamed_addr #2 comdat align 2 {
  %2 = alloca ptr, align 8
  store ptr %0, ptr %2, align 8
  %3 = load ptr, ptr %2, align 8
  %4 = getelementptr inbounds nuw %"class.std::__shared_count", ptr %3, i32 0, i32 0
  store ptr null, ptr %4, align 8
  ret void
}

; Function Attrs: mustprogress nounwind uwtable
define linkonce_odr noundef zeroext i1 @_ZNK32pxrInternal_v0_24__pxrReserved__10PcpNodeRefeqERKS0_(ptr noundef nonnull align 8 dereferenceable(16) %0, ptr noundef nonnull align 8 dereferenceable(16) %1) #2 comdat align 2 {
  %3 = alloca ptr, align 8
  %4 = alloca ptr, align 8
  store ptr %0, ptr %3, align 8
  store ptr %1, ptr %4, align 8
  %5 = load ptr, ptr %3, align 8
  %6 = getelementptr inbounds nuw %"class.pxrInternal_v0_24__pxrReserved__::PcpNodeRef", ptr %5, i32 0, i32 1
  %7 = load i64, ptr %6, align 8
  %8 = load ptr, ptr %4, align 8
  %9 = getelementptr inbounds nuw %"class.pxrInternal_v0_24__pxrReserved__::PcpNodeRef", ptr %8, i32 0, i32 1
  %10 = load i64, ptr %9, align 8
  %11 = icmp eq i64 %7, %10
  br i1 %11, label %12, label %19

12:                                               ; preds = %2
  %13 = getelementptr inbounds nuw %"class.pxrInternal_v0_24__pxrReserved__::PcpNodeRef", ptr %5, i32 0, i32 0
  %14 = load ptr, ptr %13, align 8
  %15 = load ptr, ptr %4, align 8
  %16 = getelementptr inbounds nuw %"class.pxrInternal_v0_24__pxrReserved__::PcpNodeRef", ptr %15, i32 0, i32 0
  %17 = load ptr, ptr %16, align 8
  %18 = icmp eq ptr %14, %17
  br label %19

19:                                               ; preds = %12, %2
  %20 = phi i1 [ false, %2 ], [ %18, %12 ]
  ret i1 %20
}

; Function Attrs: mustprogress nounwind uwtable
define linkonce_odr void @_ZNSt12__shared_ptrIN32pxrInternal_v0_24__pxrReserved__12PcpPrimIndexELN9__gnu_cxx12_Lock_policyE2EEC2Ev(ptr noundef nonnull align 8 dereferenceable(16) %0) unnamed_addr #2 comdat align 2 {
  %2 = alloca ptr, align 8
  store ptr %0, ptr %2, align 8
  %3 = load ptr, ptr %2, align 8
  %4 = getelementptr inbounds nuw %"class.std::__shared_ptr", ptr %3, i32 0, i32 0
  store ptr null, ptr %4, align 8
  %5 = getelementptr inbounds nuw %"class.std::__shared_ptr", ptr %3, i32 0, i32 1
  call void @_ZNSt14__shared_countILN9__gnu_cxx12_Lock_policyE2EEC2Ev(ptr noundef nonnull align 8 dereferenceable(8) %5) #11
  ret void
}

; Function Attrs: mustprogress uwtable
define linkonce_odr noundef zeroext i1 @_ZNK32pxrInternal_v0_24__pxrReserved__10PcpNodeRefneERKS0_(ptr noundef nonnull align 8 dereferenceable(16) %0, ptr noundef nonnull align 8 dereferenceable(16) %1) #0 comdat align 2 {
  %3 = alloca ptr, align 8
  %4 = alloca ptr, align 8
  store ptr %0, ptr %3, align 8
  store ptr %1, ptr %4, align 8
  %5 = load ptr, ptr %3, align 8
  %6 = load ptr, ptr %4, align 8
  %7 = call noundef zeroext i1 @_ZNK32pxrInternal_v0_24__pxrReserved__10PcpNodeRefeqERKS0_(ptr noundef nonnull align 8 dereferenceable(16) %5, ptr noundef nonnull align 8 dereferenceable(16) %6)
  %8 = xor i1 %7, true
  ret i1 %8
}

; Function Attrs: mustprogress nounwind uwtable
define linkonce_odr noundef ptr @_ZN32pxrInternal_v0_24__pxrReserved__21Tf_VerifyStringFormatEv() #2 comdat {
  ret ptr null
}

; Function Attrs: mustprogress nounwind uwtable
define linkonce_odr void @_ZN32pxrInternal_v0_24__pxrReserved__13TfCallContextC2EPKcS2_mS2_(ptr noundef nonnull align 8 dereferenceable(33) %0, ptr noundef %1, ptr noundef %2, i64 noundef %3, ptr noundef %4) unnamed_addr #2 comdat align 2 {
  %6 = alloca ptr, align 8
  %7 = alloca ptr, align 8
  %8 = alloca ptr, align 8
  %9 = alloca i64, align 8
  %10 = alloca ptr, align 8
  store ptr %0, ptr %6, align 8
  store ptr %1, ptr %7, align 8
  store ptr %2, ptr %8, align 8
  store i64 %3, ptr %9, align 8
  store ptr %4, ptr %10, align 8
  %11 = load ptr, ptr %6, align 8
  %12 = getelementptr inbounds nuw %"class.pxrInternal_v0_24__pxrReserved__::TfCallContext", ptr %11, i32 0, i32 0
  %13 = load ptr, ptr %7, align 8
  store ptr %13, ptr %12, align 8
  %14 = getelementptr inbounds nuw %"class.pxrInternal_v0_24__pxrReserved__::TfCallContext", ptr %11, i32 0, i32 1
  %15 = load ptr, ptr %8, align 8
  store ptr %15, ptr %14, align 8
  %16 = getelementptr inbounds nuw %"class.pxrInternal_v0_24__pxrReserved__::TfCallContext", ptr %11, i32 0, i32 2
  %17 = load i64, ptr %9, align 8
  store i64 %17, ptr %16, align 8
  %18 = getelementptr inbounds nuw %"class.pxrInternal_v0_24__pxrReserved__::TfCallContext", ptr %11, i32 0, i32 3
  %19 = load ptr, ptr %10, align 8
  store ptr %19, ptr %18, align 8
  %20 = getelementptr inbounds nuw %"class.pxrInternal_v0_24__pxrReserved__::TfCallContext", ptr %11, i32 0, i32 4
  store i8 0, ptr %20, align 8
  ret void
}

; Function Attrs: mustprogress nounwind uwtable
define linkonce_odr i64 @_ZNK32pxrInternal_v0_24__pxrReserved__10PcpNodeRefcvMS0_mEv(ptr noundef nonnull align 8 dereferenceable(16) %0) #2 comdat align 2 {
  %2 = alloca ptr, align 8
  store ptr %0, ptr %2, align 8
  %3 = load ptr, ptr %2, align 8
  %4 = getelementptr inbounds nuw %"class.pxrInternal_v0_24__pxrReserved__::PcpNodeRef", ptr %3, i32 0, i32 0
  %5 = load ptr, ptr %4, align 8
  %6 = icmp ne ptr %5, null
  br i1 %6, label %7, label %11

7:                                                ; preds = %1
  %8 = getelementptr inbounds nuw %"class.pxrInternal_v0_24__pxrReserved__::PcpNodeRef", ptr %3, i32 0, i32 1
  %9 = load i64, ptr %8, align 8
  %10 = icmp ne i64 %9, -1
  br label %11

11:                                               ; preds = %7, %1
  %12 = phi i1 [ false, %1 ], [ %10, %7 ]
  %13 = select i1 %12, i64 8, i64 -1
  ret i64 %13
}

; Function Attrs: mustprogress nounwind uwtable
define linkonce_odr void @_ZNSt10shared_ptrIN32pxrInternal_v0_24__pxrReserved__12PcpPrimIndexEEC2Ev(ptr noundef nonnull align 8 dereferenceable(16) %0) unnamed_addr #2 comdat align 2 {
  %2 = alloca ptr, align 8
  store ptr %0, ptr %2, align 8
  %3 = load ptr, ptr %2, align 8
  call void @_ZNSt12__shared_ptrIN32pxrInternal_v0_24__pxrReserved__12PcpPrimIndexELN9__gnu_cxx12_Lock_policyE2EEC2Ev(ptr noundef nonnull align 8 dereferenceable(16) %3) #11
  ret void
}

; Function Attrs: mustprogress nounwind uwtable
define linkonce_odr void @_ZN32pxrInternal_v0_24__pxrReserved__10PcpNodeRefC2Ev(ptr noundef nonnull align 8 dereferenceable(16) %0) unnamed_addr #2 comdat align 2 {
  %2 = alloca ptr, align 8
  store ptr %0, ptr %2, align 8
  %3 = load ptr, ptr %2, align 8
  %4 = getelementptr inbounds nuw %"class.pxrInternal_v0_24__pxrReserved__::PcpNodeRef", ptr %3, i32 0, i32 0
  store ptr null, ptr %4, align 8
  %5 = getelementptr inbounds nuw %"class.pxrInternal_v0_24__pxrReserved__::PcpNodeRef", ptr %3, i32 0, i32 1
  store i64 -1, ptr %5, align 8
  ret void
}

; Function Attrs: mustprogress uwtable
define void @_ZN32pxrInternal_v0_24__pxrReserved__26UsdPrimCompositionQueryArcC2ERKNS_10PcpNodeRefE(ptr noundef nonnull align 8 dereferenceable(64) %0, ptr noundef nonnull align 8 dereferenceable(16) %1) unnamed_addr #0 align 2 personality ptr @__gxx_personality_v0 {
  %3 = alloca ptr, align 8
  %4 = alloca ptr, align 8
  %5 = alloca ptr, align 8
  %6 = alloca i32, align 4
  %7 = alloca %"class.pxrInternal_v0_24__pxrReserved__::TfCallContext", align 8
  %8 = alloca %"class.pxrInternal_v0_24__pxrReserved__::PcpNodeRef", align 8
  %9 = alloca %"class.pxrInternal_v0_24__pxrReserved__::PcpNodeRef", align 8
  %10 = alloca %"class.pxrInternal_v0_24__pxrReserved__::PcpNodeRef", align 8
  %11 = alloca %"class.pxrInternal_v0_24__pxrReserved__::PcpNodeRef", align 8
  store ptr %0, ptr %3, align 8
  store ptr %1, ptr %4, align 8
  %12 = load ptr, ptr %3, align 8
  %13 = getelementptr inbounds nuw %"class.pxrInternal_v0_24__pxrReserved__::UsdPrimCompositionQueryArc", ptr %12, i32 0, i32 0
  %14 = load ptr, ptr %4, align 8
  call void @llvm.memcpy.p0.p0.i64(ptr align 8 %13, ptr align 8 %14, i64 16, i1 false)
  %15 = getelementptr inbounds nuw %"class.pxrInternal_v0_24__pxrReserved__::UsdPrimCompositionQueryArc", ptr %12, i32 0, i32 1
  %16 = load ptr, ptr %4, align 8
  call void @llvm.memcpy.p0.p0.i64(ptr align 8 %15, ptr align 8 %16, i64 16, i1 false)
  %17 = getelementptr inbounds nuw %"class.pxrInternal_v0_24__pxrReserved__::UsdPrimCompositionQueryArc", ptr %12, i32 0, i32 2
  call void @_ZN32pxrInternal_v0_24__pxrReserved__10PcpNodeRefC2Ev(ptr noundef nonnull align 8 dereferenceable(16) %17)
  %18 = getelementptr inbounds nuw %"class.pxrInternal_v0_24__pxrReserved__::UsdPrimCompositionQueryArc", ptr %12, i32 0, i32 3
  call void @_ZNSt10shared_ptrIN32pxrInternal_v0_24__pxrReserved__12PcpPrimIndexEEC2Ev(ptr noundef nonnull align 8 dereferenceable(16) %18) #11
  %19 = getelementptr inbounds nuw %"class.pxrInternal_v0_24__pxrReserved__::UsdPrimCompositionQueryArc", ptr %12, i32 0, i32 0
  %20 = invoke i64 @_ZNK32pxrInternal_v0_24__pxrReserved__10PcpNodeRefcvMS0_mEv(ptr noundef nonnull align 8 dereferenceable(16) %19)
          to label %21 unwind label %34

21:                                               ; preds = %2
  %22 = icmp ne i64 %20, -1
  br i1 %22, label %23, label %24

23:                                               ; preds = %21
  br label %30

24:                                               ; preds = %21
  invoke void @_ZN32pxrInternal_v0_24__pxrReserved__13TfCallContextC2EPKcS2_mS2_(ptr noundef nonnull align 8 dereferenceable(33) %7, ptr noundef @.str, ptr noundef @__func__._ZN32pxrInternal_v0_24__pxrReserved__26UsdPrimCompositionQueryArcC2ERKNS_10PcpNodeRefE, i64 noundef 25, ptr noundef @__PRETTY_FUNCTION__._ZN32pxrInternal_v0_24__pxrReserved__26UsdPrimCompositionQueryArcC2ERKNS_10PcpNodeRefE)
          to label %25 unwind label %34

25:                                               ; preds = %24
  %26 = invoke noundef ptr @_ZN32pxrInternal_v0_24__pxrReserved__21Tf_VerifyStringFormatEv()
          to label %27 unwind label %34

27:                                               ; preds = %25
  %28 = invoke noundef zeroext i1 @_ZN32pxrInternal_v0_24__pxrReserved__21Tf_FailedVerifyHelperERKNS_13TfCallContextEPKcS4_(ptr noundef nonnull align 8 dereferenceable(33) %7, ptr noundef @.str.1, ptr noundef %26)
          to label %29 unwind label %34

29:                                               ; preds = %27
  br label %30

30:                                               ; preds = %29, %23
  %31 = phi i1 [ true, %23 ], [ %28, %29 ]
  %32 = xor i1 %31, true
  br i1 %32, label %33, label %38

33:                                               ; preds = %30
  br label %82

34:                                               ; preds = %73, %64, %57, %50, %47, %38, %27, %25, %24, %2
  %35 = landingpad { ptr, i32 }
          cleanup
  %36 = extractvalue { ptr, i32 } %35, 0
  store ptr %36, ptr %5, align 8
  %37 = extractvalue { ptr, i32 } %35, 1
  store i32 %37, ptr %6, align 4
  call void @_ZNSt10shared_ptrIN32pxrInternal_v0_24__pxrReserved__12PcpPrimIndexEED2Ev(ptr noundef nonnull align 8 dereferenceable(16) %18) #11
  br label %83

38:                                               ; preds = %30
  %39 = getelementptr inbounds nuw %"class.pxrInternal_v0_24__pxrReserved__::UsdPrimCompositionQueryArc", ptr %12, i32 0, i32 0
  %40 = getelementptr inbounds nuw %"class.pxrInternal_v0_24__pxrReserved__::UsdPrimCompositionQueryArc", ptr %12, i32 0, i32 1
  call void @llvm.memcpy.p0.p0.i64(ptr align 8 %40, ptr align 8 %39, i64 16, i1 false)
  %41 = getelementptr inbounds nuw %"class.pxrInternal_v0_24__pxrReserved__::UsdPrimCompositionQueryArc", ptr %12, i32 0, i32 0
  %42 = invoke noundef zeroext i1 @_ZNK32pxrInternal_v0_24__pxrReserved__10PcpNodeRef10IsRootNodeEv(ptr noundef nonnull align 8 dereferenceable(16) %41)
          to label %43 unwind label %34

43:                                               ; preds = %38
  br i1 %42, label %44, label %47

44:                                               ; preds = %43
  %45 = getelementptr inbounds nuw %"class.pxrInternal_v0_24__pxrReserved__::UsdPrimCompositionQueryArc", ptr %12, i32 0, i32 0
  %46 = getelementptr inbounds nuw %"class.pxrInternal_v0_24__pxrReserved__::UsdPrimCompositionQueryArc", ptr %12, i32 0, i32 2
  call void @llvm.memcpy.p0.p0.i64(ptr align 8 %46, ptr align 8 %45, i64 16, i1 false)
  br label %82

47:                                               ; preds = %43
  %48 = getelementptr inbounds nuw %"class.pxrInternal_v0_24__pxrReserved__::UsdPrimCompositionQueryArc", ptr %12, i32 0, i32 0
  %49 = invoke { ptr, i64 } @_ZNK32pxrInternal_v0_24__pxrReserved__10PcpNodeRef13GetOriginNodeEv(ptr noundef nonnull align 8 dereferenceable(16) %48)
          to label %50 unwind label %34

50:                                               ; preds = %47
  %51 = getelementptr inbounds nuw { ptr, i64 }, ptr %8, i32 0, i32 0
  %52 = extractvalue { ptr, i64 } %49, 0
  store ptr %52, ptr %51, align 8
  %53 = getelementptr inbounds nuw { ptr, i64 }, ptr %8, i32 0, i32 1
  %54 = extractvalue { ptr, i64 } %49, 1
  store i64 %54, ptr %53, align 8
  %55 = getelementptr inbounds nuw %"class.pxrInternal_v0_24__pxrReserved__::UsdPrimCompositionQueryArc", ptr %12, i32 0, i32 0
  %56 = invoke { ptr, i64 } @_ZNK32pxrInternal_v0_24__pxrReserved__10PcpNodeRef13GetParentNodeEv(ptr noundef nonnull align 8 dereferenceable(16) %55)
          to label %57 unwind label %34

57:                                               ; preds = %50
  %58 = getelementptr inbounds nuw { ptr, i64 }, ptr %9, i32 0, i32 0
  %59 = extractvalue { ptr, i64 } %56, 0
  store ptr %59, ptr %58, align 8
  %60 = getelementptr inbounds nuw { ptr, i64 }, ptr %9, i32 0, i32 1
  %61 = extractvalue { ptr, i64 } %56, 1
  store i64 %61, ptr %60, align 8
  %62 = invoke noundef zeroext i1 @_ZNK32pxrInternal_v0_24__pxrReserved__10PcpNodeRefneERKS0_(ptr noundef nonnull align 8 dereferenceable(16) %8, ptr noundef nonnull align 8 dereferenceable(16) %9)
          to label %63 unwind label %34

63:                                               ; preds = %57
  br i1 %62, label %64, label %73

64:                                               ; preds = %63
  %65 = getelementptr inbounds nuw %"class.pxrInternal_v0_24__pxrReserved__::UsdPrimCompositionQueryArc", ptr %12, i32 0, i32 0
  %66 = invoke { ptr, i64 } @_ZNK32pxrInternal_v0_24__pxrReserved__10PcpNodeRef17GetOriginRootNodeEv(ptr noundef nonnull align 8 dereferenceable(16) %65)
          to label %67 unwind label %34

67:                                               ; preds = %64
  %68 = getelementptr inbounds nuw { ptr, i64 }, ptr %10, i32 0, i32 0
  %69 = extractvalue { ptr, i64 } %66, 0
  store ptr %69, ptr %68, align 8
  %70 = getelementptr inbounds nuw { ptr, i64 }, ptr %10, i32 0, i32 1
  %71 = extractvalue { ptr, i64 } %66, 1
  store i64 %71, ptr %70, align 8
  %72 = getelementptr inbounds nuw %"class.pxrInternal_v0_24__pxrReserved__::UsdPrimCompositionQueryArc", ptr %12, i32 0, i32 1
  call void @llvm.memcpy.p0.p0.i64(ptr align 8 %72, ptr align 8 %10, i64 16, i1 false)
  br label %73

73:                                               ; preds = %67, %63
  %74 = getelementptr inbounds nuw %"class.pxrInternal_v0_24__pxrReserved__::UsdPrimCompositionQueryArc", ptr %12, i32 0, i32 1
  %75 = invoke { ptr, i64 } @_ZNK32pxrInternal_v0_24__pxrReserved__10PcpNodeRef13GetParentNodeEv(ptr noundef nonnull align 8 dereferenceable(16) %74)
          to label %76 unwind label %34

76:                                               ; preds = %73
  %77 = getelementptr inbounds nuw { ptr, i64 }, ptr %11, i32 0, i32 0
  %78 = extractvalue { ptr, i64 } %75, 0
  store ptr %78, ptr %77, align 8
  %79 = getelementptr inbounds nuw { ptr, i64 }, ptr %11, i32 0, i32 1
  %80 = extractvalue { ptr, i64 } %75, 1
  store i64 %80, ptr %79, align 8
  %81 = getelementptr inbounds nuw %"class.pxrInternal_v0_24__pxrReserved__::UsdPrimCompositionQueryArc", ptr %12, i32 0, i32 2
  call void @llvm.memcpy.p0.p0.i64(ptr align 8 %81, ptr align 8 %11, i64 16, i1 false)
  br label %82

82:                                               ; preds = %76, %44, %33
  ret void

83:                                               ; preds = %34
  %84 = load ptr, ptr %5, align 8
  %85 = load i32, ptr %6, align 4
  %86 = insertvalue { ptr, i32 } poison, ptr %84, 0
  %87 = insertvalue { ptr, i32 } %86, i32 %85, 1
  resume { ptr, i32 } %87
}