; Function Attrs: mustprogress uwtable
define void @_ZN32pxrInternal_v0_24__pxrReserved__26UsdPrimCompositionQueryArcC2ERKNS_10PcpNodeRefE(ptr noundef nonnull align 8 dereferenceable(64) initializes((0, 64)) %0, ptr noundef nonnull readonly align 8 captures(none) dereferenceable(16) %1) unnamed_addr #0 align 2 personality ptr @__gxx_personality_v0 {
  %3 = alloca %"class.pxrInternal_v0_24__pxrReserved__::TfCallContext", align 8
  tail call void @llvm.memcpy.p0.p0.i64(ptr noundef nonnull align 8 dereferenceable(16) %0, ptr noundef nonnull align 8 dereferenceable(16) %1, i64 16, i1 false)
  %4 = getelementptr inbounds nuw i8, ptr %0, i64 16
  tail call void @llvm.memcpy.p0.p0.i64(ptr noundef nonnull align 8 dereferenceable(16) %4, ptr noundef nonnull align 8 dereferenceable(16) %1, i64 16, i1 false)
  %5 = getelementptr inbounds nuw i8, ptr %0, i64 32
  store ptr null, ptr %5, align 8
  %6 = getelementptr inbounds nuw i8, ptr %0, i64 40
  store i64 -1, ptr %6, align 8
  %7 = getelementptr inbounds nuw i8, ptr %0, i64 48
  tail call void @llvm.memset.p0.i64(ptr noundef nonnull align 8 dereferenceable(16) %7, i8 0, i64 16, i1 false)
  %8 = load ptr, ptr %0, align 8
  %.not.i = icmp eq ptr %8, null
  %9 = getelementptr inbounds nuw i8, ptr %0, i64 8
  %10 = load i64, ptr %9, align 8
  %.not1.i = icmp eq i64 %10, -1
  %11 = select i1 %.not.i, i1 true, i1 %.not1.i
  br i1 %11, label %12, label %.critedge

12:                                               ; preds = %2
  store ptr @.str, ptr %3, align 8
  %13 = getelementptr inbounds nuw i8, ptr %3, i64 8
  store ptr @__func__._ZN32pxrInternal_v0_24__pxrReserved__26UsdPrimCompositionQueryArcC2ERKNS_10PcpNodeRefE, ptr %13, align 8
  %14 = getelementptr inbounds nuw i8, ptr %3, i64 16
  store i64 25, ptr %14, align 8
  %15 = getelementptr inbounds nuw i8, ptr %3, i64 24
  store ptr @__PRETTY_FUNCTION__._ZN32pxrInternal_v0_24__pxrReserved__26UsdPrimCompositionQueryArcC2ERKNS_10PcpNodeRefE, ptr %15, align 8
  %16 = getelementptr inbounds nuw i8, ptr %3, i64 32
  store i8 0, ptr %16, align 8
  %17 = invoke noundef zeroext i1 @_ZN32pxrInternal_v0_24__pxrReserved__21Tf_FailedVerifyHelperERKNS_13TfCallContextEPKcS4_(ptr noundef nonnull align 8 dereferenceable(33) %3, ptr noundef nonnull @.str.1, ptr noundef null)
          to label %18 unwind label %19

18:                                               ; preds = %12
  br i1 %17, label %.critedge, label %45

19:                                               ; preds = %40, %35, %26, %24, %.critedge, %12
  %20 = landingpad { ptr, i32 }
          cleanup
  call void @_ZNSt10shared_ptrIN32pxrInternal_v0_24__pxrReserved__12PcpPrimIndexEED2Ev(ptr noundef nonnull align 8 dereferenceable(16) %7) #18
  resume { ptr, i32 } %20

.critedge:                                        ; preds = %2, %18
  call void @llvm.memcpy.p0.p0.i64(ptr noundef nonnull align 8 dereferenceable(16) %4, ptr noundef nonnull align 8 dereferenceable(16) %0, i64 16, i1 false)
  %21 = invoke noundef zeroext i1 @_ZNK32pxrInternal_v0_24__pxrReserved__10PcpNodeRef10IsRootNodeEv(ptr noundef nonnull align 8 dereferenceable(16) %0)
          to label %22 unwind label %19

22:                                               ; preds = %.critedge
  br i1 %21, label %23, label %24

23:                                               ; preds = %22
  call void @llvm.memcpy.p0.p0.i64(ptr noundef nonnull align 8 dereferenceable(16) %5, ptr noundef nonnull align 8 dereferenceable(16) %0, i64 16, i1 false)
  br label %45

24:                                               ; preds = %22
  %25 = invoke { ptr, i64 } @_ZNK32pxrInternal_v0_24__pxrReserved__10PcpNodeRef13GetOriginNodeEv(ptr noundef nonnull align 8 dereferenceable(16) %0)
          to label %26 unwind label %19

26:                                               ; preds = %24
  %27 = invoke { ptr, i64 } @_ZNK32pxrInternal_v0_24__pxrReserved__10PcpNodeRef13GetParentNodeEv(ptr noundef nonnull align 8 dereferenceable(16) %0)
          to label %28 unwind label %19

28:                                               ; preds = %26
  %29 = extractvalue { ptr, i64 } %25, 1
  %30 = extractvalue { ptr, i64 } %25, 0
  %31 = extractvalue { ptr, i64 } %27, 0
  %32 = extractvalue { ptr, i64 } %27, 1
  %33 = icmp ne i64 %29, %32
  %34 = icmp ne ptr %30, %31
  %.not3.i = select i1 %33, i1 true, i1 %34
  br i1 %.not3.i, label %35, label %40

35:                                               ; preds = %28
  %36 = invoke { ptr, i64 } @_ZNK32pxrInternal_v0_24__pxrReserved__10PcpNodeRef17GetOriginRootNodeEv(ptr noundef nonnull align 8 dereferenceable(16) %0)
          to label %37 unwind label %19

37:                                               ; preds = %35
  %38 = extractvalue { ptr, i64 } %36, 0
  %39 = extractvalue { ptr, i64 } %36, 1
  store ptr %38, ptr %4, align 8
  %.sroa.22.0..sroa_idx = getelementptr inbounds nuw i8, ptr %0, i64 24
  store i64 %39, ptr %.sroa.22.0..sroa_idx, align 8
  br label %40

40:                                               ; preds = %37, %28
  %41 = invoke { ptr, i64 } @_ZNK32pxrInternal_v0_24__pxrReserved__10PcpNodeRef13GetParentNodeEv(ptr noundef nonnull align 8 dereferenceable(16) %4)
          to label %42 unwind label %19

42:                                               ; preds = %40
  %43 = extractvalue { ptr, i64 } %41, 0
  %44 = extractvalue { ptr, i64 } %41, 1
  store ptr %43, ptr %5, align 8
  store i64 %44, ptr %6, align 8
  br label %45

45:                                               ; preds = %18, %42, %23
  ret void
}